; Function Attrs: mustprogress uwtable
define noundef double @_ZNK8QuantLib23MonteCarloCatBondEngine18cashFlowRiskyValueERKN5boost10shared_ptrINS_8CashFlowEEERKNS_12NotionalPathE(ptr nocapture noundef nonnull readnone align 8 dereferenceable(338) %this, ptr nocapture noundef nonnull readonly align 8 dereferenceable(16) %cf, ptr noundef nonnull align 8 dereferenceable(24) %notionalPath) local_unnamed_addr #7 align 2 {
entry:
  %ref.tmp = alloca %"class.QuantLib::Date", align 8
  %0 = load ptr, ptr %cf, align 8, !tbaa !96
  %cmp.not.i = icmp eq ptr %0, null
  br i1 %cmp.not.i, label %cond.false.i, label %_ZNK5boost10shared_ptrIN8QuantLib8CashFlowEEptEv.exit, !prof !51

cond.false.i:                                     ; preds = %entry
  tail call void @_ZN5boost16assertion_failedEPKcS1_S1_l(ptr noundef nonnull @.str.7, ptr noundef nonnull @__PRETTY_FUNCTION__._ZNK5boost10shared_ptrIN8QuantLib8CashFlowEEptEv, ptr noundef nonnull @.str.8, i64 noundef 784)
  %.pre.i = load ptr, ptr %cf, align 8, !tbaa !96
  br label %_ZNK5boost10shared_ptrIN8QuantLib8CashFlowEEptEv.exit

_ZNK5boost10shared_ptrIN8QuantLib8CashFlowEEptEv.exit: ; preds = %entry, %cond.false.i
  %1 = phi ptr [ %0, %entry ], [ %.pre.i, %cond.false.i ]
  %vtable = load ptr, ptr %1, align 8, !tbaa !35
  %vfn = getelementptr inbounds i8, ptr %vtable, i64 48
  %2 = load ptr, ptr %vfn, align 8
  %call2 = tail call noundef double %2(ptr noundef nonnull align 8 dereferenceable(20) %1)
  call void @llvm.lifetime.start.p0(i64 8, ptr nonnull %ref.tmp) #25
  %3 = load ptr, ptr %cf, align 8, !tbaa !96
  %cmp.not.i2 = icmp eq ptr %3, null
  br i1 %cmp.not.i2, label %cond.false.i3, label %_ZNK5boost10shared_ptrIN8QuantLib8CashFlowEEptEv.exit5, !prof !51

cond.false.i3:                                    ; preds = %_ZNK5boost10shared_ptrIN8QuantLib8CashFlowEEptEv.exit
  tail call void @_ZN5boost16assertion_failedEPKcS1_S1_l(ptr noundef nonnull @.str.7, ptr noundef nonnull @__PRETTY_FUNCTION__._ZNK5boost10shared_ptrIN8QuantLib8CashFlowEEptEv, ptr noundef nonnull @.str.8, i64 noundef 784)
  %.pre.i4 = load ptr, ptr %cf, align 8, !tbaa !96
  br label %_ZNK5boost10shared_ptrIN8QuantLib8CashFlowEEptEv.exit5

_ZNK5boost10shared_ptrIN8QuantLib8CashFlowEEptEv.exit5: ; preds = %_ZNK5boost10shared_ptrIN8QuantLib8CashFlowEEptEv.exit, %cond.false.i3
  %4 = phi ptr [ %3, %_ZNK5boost10shared_ptrIN8QuantLib8CashFlowEEptEv.exit ], [ %.pre.i4, %cond.false.i3 ]
  %vtable4 = load ptr, ptr %4, align 8, !tbaa !35
  %vfn5 = getelementptr inbounds i8, ptr %vtable4, i64 16
  %5 = load ptr, ptr %vfn5, align 8
  %call6 = tail call i64 %5(ptr noundef nonnull align 8 dereferenceable(20) %4)
  store i64 %call6, ptr %ref.tmp, align 8
  %call7 = call noundef double @_ZNK8QuantLib12NotionalPath12notionalRateERKNS_4DateE(ptr noundef nonnull align 8 dereferenceable(24) %notionalPath, ptr noundef nonnull align 8 dereferenceable(8) %ref.tmp)
  %mul = fmul double %call2, %call7
  call void @llvm.lifetime.end.p0(i64 8, ptr nonnull %ref.tmp) #25
  ret double %mul
}